target datalayout = "e-m:e-p270:32:32-p271:32:32-p272:64:64-i64:64-i128:128-f80:128-n8:16:32:64-S128"
target triple = "x86_64-pc-linux-gnu"

%struct.uv_loop_s = type { ptr, i32, [2 x ptr], %union.anon.2, ptr, i32, i64, i32, [2 x ptr], [2 x ptr], ptr, i32, i32, [2 x ptr], %union.pthread_mutex_t, %struct.uv_async_s, %union.pthread_rwlock_t, ptr, [2 x ptr], [2 x ptr], [2 x ptr], [2 x ptr], [2 x ptr], ptr, %struct.uv__io_s, i32, %struct.anon, i64, i64, [2 x i32], %struct.uv__io_s, %struct.uv_signal_s, i32, %struct.uv__io_s, ptr, i32 }
%union.anon.2 = type { ptr }
%union.pthread_mutex_t = type { %struct.__pthread_mutex_s }
%struct.__pthread_mutex_s = type { i32, i32, i32, i32, i32, i16, i16, %struct.__pthread_internal_list }
%struct.__pthread_internal_list = type { ptr, ptr }
%struct.uv_async_s = type { ptr, ptr, i32, ptr, [2 x ptr], %union.anon.3, ptr, i32, ptr, [2 x ptr], i32 }
%union.anon.3 = type { [4 x ptr] }
%union.pthread_rwlock_t = type { %struct.__pthread_rwlock_arch_t }
%struct.__pthread_rwlock_arch_t = type { i32, i32, i32, i32, i32, i32, i32, i32, i8, [7 x i8], i64, i32 }
%struct.anon = type { ptr, i32 }
%struct.uv_signal_s = type { ptr, ptr, i32, ptr, [2 x ptr], %union.anon.4, ptr, i32, ptr, i32, %struct.anon.5, i32, i32 }
%union.anon.4 = type { [4 x ptr] }
%struct.anon.5 = type { ptr, ptr, ptr, i32 }
%struct.uv__io_s = type { ptr, [2 x ptr], [2 x ptr], i32, i32, i32 }
%struct.uv__loop_internal_fields_s = type { i32, %struct.uv__loop_metrics_s }
%struct.uv__loop_metrics_s = type { i64, i64, %union.pthread_mutex_t }

; Function Attrs: nounwind uwtable
define dso_local void @uv__metrics_update_idle_time(ptr noundef %0) #0 {
  %2 = alloca ptr, align 8
  %3 = alloca ptr, align 8
  %4 = alloca i64, align 8
  %5 = alloca i64, align 8
  %6 = alloca i32, align 4
  store ptr %0, ptr %2, align 8, !tbaa !52
  call void @llvm.lifetime.start.p0(i64 8, ptr %3) #13
  call void @llvm.lifetime.start.p0(i64 8, ptr %4) #13
  call void @llvm.lifetime.start.p0(i64 8, ptr %5) #13
  %7 = load ptr, ptr %2, align 8, !tbaa !52
  %8 = getelementptr inbounds nuw %struct.uv_loop_s, ptr %7, i32 0, i32 4
  %9 = load ptr, ptr %8, align 8, !tbaa !136
  %10 = getelementptr inbounds nuw %struct.uv__loop_internal_fields_s, ptr %9, i32 0, i32 0
  %11 = load i32, ptr %10, align 8, !tbaa !137
  %12 = and i32 %11, 1
  %13 = icmp ne i32 %12, 0
  br i1 %13, label %15, label %14

14:                                               ; preds = %1
  store i32 1, ptr %6, align 4
  br label %43

15:                                               ; preds = %1
  %16 = load ptr, ptr %2, align 8, !tbaa !52
  %17 = getelementptr inbounds nuw %struct.uv_loop_s, ptr %16, i32 0, i32 4
  %18 = load ptr, ptr %17, align 8, !tbaa !136
  %19 = getelementptr inbounds nuw %struct.uv__loop_internal_fields_s, ptr %18, i32 0, i32 1
  store ptr %19, ptr %3, align 8, !tbaa !140
  %20 = load ptr, ptr %3, align 8, !tbaa !140
  %21 = getelementptr inbounds nuw %struct.uv__loop_metrics_s, ptr %20, i32 0, i32 0
  %22 = load i64, ptr %21, align 8, !tbaa !142
  %23 = icmp eq i64 %22, 0
  br i1 %23, label %24, label %25

24:                                               ; preds = %15
  store i32 1, ptr %6, align 4
  br label %43

25:                                               ; preds = %15
  %26 = call i64 @uv_hrtime()
  store i64 %26, ptr %5, align 8, !tbaa !9
  %27 = load ptr, ptr %3, align 8, !tbaa !140
  %28 = getelementptr inbounds nuw %struct.uv__loop_metrics_s, ptr %27, i32 0, i32 2
  call void @uv_mutex_lock(ptr noundef %28)
  %29 = load ptr, ptr %3, align 8, !tbaa !140
  %30 = getelementptr inbounds nuw %struct.uv__loop_metrics_s, ptr %29, i32 0, i32 0
  %31 = load i64, ptr %30, align 8, !tbaa !142
  store i64 %31, ptr %4, align 8, !tbaa !9
  %32 = load ptr, ptr %3, align 8, !tbaa !140
  %33 = getelementptr inbounds nuw %struct.uv__loop_metrics_s, ptr %32, i32 0, i32 0
  store i64 0, ptr %33, align 8, !tbaa !142
  %34 = load i64, ptr %5, align 8, !tbaa !9
  %35 = load i64, ptr %4, align 8, !tbaa !9
  %36 = sub i64 %34, %35
  %37 = load ptr, ptr %3, align 8, !tbaa !140
  %38 = getelementptr inbounds nuw %struct.uv__loop_metrics_s, ptr %37, i32 0, i32 1
  %39 = load i64, ptr %38, align 8, !tbaa !143
  %40 = add i64 %39, %36
  store i64 %40, ptr %38, align 8, !tbaa !143
  %41 = load ptr, ptr %3, align 8, !tbaa !140
  %42 = getelementptr inbounds nuw %struct.uv__loop_metrics_s, ptr %41, i32 0, i32 2
  call void @uv_mutex_unlock(ptr noundef %42)
  store i32 0, ptr %6, align 4
  br label %43

43:                                               ; preds = %25, %24, %14
  call void @llvm.lifetime.end.p0(i64 8, ptr %5) #13
  call void @llvm.lifetime.end.p0(i64 8, ptr %4) #13
  call void @llvm.lifetime.end.p0(i64 8, ptr %3) #13
  %44 = load i32, ptr %6, align 4
  switch i32 %44, label %46 [
    i32 0, label %45
    i32 1, label %45
  ]

45:                                               ; preds = %43, %43
  ret void

46:                                               ; preds = %43
  unreachable
}