; Function Attrs: nounwind uwtable
define dso_local void @uv__metrics_update_idle_time(ptr noundef readonly captures(none) %0) local_unnamed_addr #0 {
  %2 = getelementptr inbounds nuw i8, ptr %0, i64 40
  %3 = load ptr, ptr %2, align 8, !tbaa !97
  %4 = load i32, ptr %3, align 8, !tbaa !98
  %5 = and i32 %4, 1
  %.not = icmp eq i32 %5, 0
  br i1 %.not, label %18, label %6

6:                                                ; preds = %1
  %7 = getelementptr inbounds nuw i8, ptr %3, i64 8
  %8 = load i64, ptr %7, align 8, !tbaa !101
  %9 = icmp eq i64 %8, 0
  br i1 %9, label %18, label %10

10:                                               ; preds = %6
  %11 = tail call i64 @uv_hrtime() #26
  %12 = getelementptr inbounds nuw i8, ptr %3, i64 24
  tail call void @uv_mutex_lock(ptr noundef nonnull %12) #26
  %13 = load i64, ptr %7, align 8, !tbaa !101
  store i64 0, ptr %7, align 8, !tbaa !101
  %14 = sub i64 %11, %13
  %15 = getelementptr inbounds nuw i8, ptr %3, i64 16
  %16 = load i64, ptr %15, align 8, !tbaa !102
  %17 = add i64 %14, %16
  store i64 %17, ptr %15, align 8, !tbaa !102
  tail call void @uv_mutex_unlock(ptr noundef nonnull %12) #26
  br label %18

18:                                               ; preds = %6, %1, %10
  ret void
}